target datalayout = "e-m:e-p270:32:32-p271:32:32-p272:64:64-i64:64-i128:128-f80:128-n8:16:32:64-S128"
target triple = "x86_64-pc-linux-gnu"

%class.QString = type { %struct.QArrayDataPointer }
%struct.QArrayDataPointer = type { ptr, ptr, i64 }
%struct.QMetaObject = type { %"struct.QMetaObject::Data" }
%"struct.QMetaObject::Data" = type { %"struct.QMetaObject::SuperData", ptr, ptr, ptr, ptr, ptr, ptr }
%"struct.QMetaObject::SuperData" = type { ptr }
%"class.QMetaObject::Connection" = type { ptr }
%class.FieldFilterEdit = type { %class.SyntaxLineEdit.base, %class.QString }
%class.SyntaxLineEdit.base = type <{ %class.QLineEdit, ptr, ptr, i32, [4 x i8], %class.QString, %class.QString, %class.QString, %class.QString, %class.QString, i8 }>
%class.QLineEdit = type { %class.QWidget }
%class.QWidget = type { %class.QObject, %class.QPaintDevice.base, ptr }
%class.QObject = type { ptr, %class.QScopedPointer }
%class.QScopedPointer = type { ptr }
%class.QPaintDevice.base = type <{ ptr, i16 }>
%class.SyntaxLineEdit = type <{ %class.QLineEdit, ptr, ptr, i32, [4 x i8], %class.QString, %class.QString, %class.QString, %class.QString, %class.QString, i8, [7 x i8] }>
%class.QBasicAtomicInteger = type { %"struct.std::atomic" }
%"struct.std::atomic" = type { %"struct.std::__atomic_base" }
%"struct.std::__atomic_base" = type { i32 }
%"class.QtPrivate::QSlotObject" = type { %"class.QtPrivate::QSlotObjectBase", { i64, i64 } }
%"class.QtPrivate::QSlotObjectBase" = type { %class.QAtomicInt, ptr }
%class.QAtomicInt = type { %class.QAtomicInteger }
%class.QAtomicInteger = type { %class.QBasicAtomicInteger }

@_ZL17fld_abbrev_chars_ = internal global %class.QString zeroinitializer, align 8
@_ZTV15FieldFilterEdit = external unnamed_addr constant { [56 x ptr], [10 x ptr] }, align 8
@.str.1 = private unnamed_addr constant [21 x i8] c"Display filter entry\00", align 1
@_ZN15FieldFilterEdit16staticMetaObjectE = external global %struct.QMetaObject, align 8
@_ZN9QLineEdit16staticMetaObjectE = external global %struct.QMetaObject, align 8
@_ZZN9QtPrivate15ConnectionTypesINS_4ListIJRK7QStringEEELb1EE5typesEvE1t = linkonce_odr constant [2 x i32] [i32 10, i32 0], comdat, align 4

; Function Attrs: mustprogress nounwind uwtable
define linkonce_odr void @_ZNSt13__atomic_baseIiEC2Ei(ptr noundef nonnull align 4 dereferenceable(4) %0, i32 noundef %1) unnamed_addr #2 comdat align 2 {
  %3 = alloca ptr, align 8
  %4 = alloca i32, align 4
  store ptr %0, ptr %3, align 8
  store i32 %1, ptr %4, align 4
  %5 = load ptr, ptr %3, align 8
  %6 = getelementptr inbounds %"struct.std::__atomic_base", ptr %5, i32 0, i32 0
  %7 = load i32, ptr %4, align 4
  store i32 %7, ptr %6, align 4
  ret void
}

; Function Attrs: mustprogress nounwind uwtable
define linkonce_odr void @_ZNSt6atomicIiEC2Ei(ptr noundef nonnull align 4 dereferenceable(4) %0, i32 noundef %1) unnamed_addr #2 comdat align 2 {
  %3 = alloca ptr, align 8
  %4 = alloca i32, align 4
  store ptr %0, ptr %3, align 8
  store i32 %1, ptr %4, align 4
  %5 = load ptr, ptr %3, align 8
  %6 = load i32, ptr %4, align 4
  call void @_ZNSt13__atomic_baseIiEC2Ei(ptr noundef nonnull align 4 dereferenceable(4) %5, i32 noundef %6) #3
  ret void
}

; Function Attrs: mustprogress nounwind uwtable
define linkonce_odr void @_ZN19QBasicAtomicIntegerIiEC2Ei(ptr noundef nonnull align 4 dereferenceable(4) %0, i32 noundef %1) unnamed_addr #2 comdat align 2 {
  %3 = alloca ptr, align 8
  %4 = alloca i32, align 4
  store ptr %0, ptr %3, align 8
  store i32 %1, ptr %4, align 4
  %5 = load ptr, ptr %3, align 8
  %6 = getelementptr inbounds %class.QBasicAtomicInteger, ptr %5, i32 0, i32 0
  %7 = load i32, ptr %4, align 4
  call void @_ZNSt6atomicIiEC2Ei(ptr noundef nonnull align 4 dereferenceable(4) %6, i32 noundef %7) #3
  ret void
}

; Function Attrs: mustprogress nounwind uwtable
define linkonce_odr void @_ZN14QAtomicIntegerIiEC2Ei(ptr noundef nonnull align 4 dereferenceable(4) %0, i32 noundef %1) unnamed_addr #2 comdat align 2 {
  %3 = alloca ptr, align 8
  %4 = alloca i32, align 4
  store ptr %0, ptr %3, align 8
  store i32 %1, ptr %4, align 4
  %5 = load ptr, ptr %3, align 8
  %6 = load i32, ptr %4, align 4
  call void @_ZN19QBasicAtomicIntegerIiEC2Ei(ptr noundef nonnull align 4 dereferenceable(4) %5, i32 noundef %6) #3
  ret void
}

; Function Attrs: mustprogress nounwind uwtable
define linkonce_odr void @_ZN10QAtomicIntC2Ei(ptr noundef nonnull align 4 dereferenceable(4) %0, i32 noundef %1) unnamed_addr #2 comdat align 2 {
  %3 = alloca ptr, align 8
  %4 = alloca i32, align 4
  store ptr %0, ptr %3, align 8
  store i32 %1, ptr %4, align 4
  %5 = load ptr, ptr %3, align 8
  %6 = load i32, ptr %4, align 4
  call void @_ZN14QAtomicIntegerIiEC2Ei(ptr noundef nonnull align 4 dereferenceable(4) %5, i32 noundef %6) #3
  ret void
}

; Function Attrs: mustprogress nounwind uwtable
define linkonce_odr void @_ZN9QtPrivate15QSlotObjectBaseC2EPFviPS0_P7QObjectPPvPbE(ptr noundef nonnull align 8 dereferenceable(16) %0, ptr noundef %1) unnamed_addr #2 comdat align 2 {
  %3 = alloca ptr, align 8
  %4 = alloca ptr, align 8
  store ptr %0, ptr %3, align 8
  store ptr %1, ptr %4, align 8
  %5 = load ptr, ptr %3, align 8
  %6 = getelementptr inbounds %"class.QtPrivate::QSlotObjectBase", ptr %5, i32 0, i32 0
  call void @_ZN10QAtomicIntC2Ei(ptr noundef nonnull align 4 dereferenceable(4) %6, i32 noundef 1) #3
  %7 = getelementptr inbounds %"class.QtPrivate::QSlotObjectBase", ptr %5, i32 0, i32 1
  %8 = load ptr, ptr %4, align 8
  store ptr %8, ptr %7, align 8
  ret void
}

; Function Attrs: mustprogress uwtable
define linkonce_odr void @_ZN9QtPrivate11QSlotObjectIM15FieldFilterEditFvRK7QStringENS_4ListIJS4_EEEvEC2ES6_(ptr noundef nonnull align 8 dereferenceable(32) %0, i64 %1, i64 %2) unnamed_addr #1 comdat align 2 {
  %4 = alloca { i64, i64 }, align 8
  %5 = alloca ptr, align 8
  %6 = alloca { i64, i64 }, align 8
  %7 = getelementptr inbounds { i64, i64 }, ptr %4, i32 0, i32 0
  store i64 %1, ptr %7, align 8
  %8 = getelementptr inbounds { i64, i64 }, ptr %4, i32 0, i32 1
  store i64 %2, ptr %8, align 8
  %9 = load { i64, i64 }, ptr %4, align 8
  store ptr %0, ptr %5, align 8
  store { i64, i64 } %9, ptr %6, align 8
  %10 = load ptr, ptr %5, align 8
  call void @_ZN9QtPrivate15QSlotObjectBaseC2EPFviPS0_P7QObjectPPvPbE(ptr noundef nonnull align 8 dereferenceable(16) %10, ptr noundef @_ZN9QtPrivate11QSlotObjectIM15FieldFilterEditFvRK7QStringENS_4ListIJS4_EEEvE4implEiPNS_15QSlotObjectBaseEP7QObjectPPvPb)
  %11 = getelementptr inbounds %"class.QtPrivate::QSlotObject", ptr %10, i32 0, i32 1
  %12 = load { i64, i64 }, ptr %6, align 8
  store { i64, i64 } %12, ptr %11, align 8
  ret void
}

; Function Attrs: mustprogress nounwind uwtable
define linkonce_odr noundef ptr @_ZN9QtPrivate15ConnectionTypesINS_4ListIJRK7QStringEEELb1EE5typesEv() #2 comdat align 2 {
  ret ptr @_ZZN9QtPrivate15ConnectionTypesINS_4ListIJRK7QStringEEELb1EE5typesEvE1t
}

; Function Attrs: mustprogress nounwind uwtable
define linkonce_odr void @_ZN17QArrayDataPointerIDsEC2Ev(ptr noundef nonnull align 8 dereferenceable(24) %0) unnamed_addr #2 comdat align 2 {
  %2 = alloca ptr, align 8
  store ptr %0, ptr %2, align 8
  %3 = load ptr, ptr %2, align 8
  %4 = getelementptr inbounds %struct.QArrayDataPointer, ptr %3, i32 0, i32 0
  store ptr null, ptr %4, align 8
  %5 = getelementptr inbounds %struct.QArrayDataPointer, ptr %3, i32 0, i32 1
  store ptr null, ptr %5, align 8
  %6 = getelementptr inbounds %struct.QArrayDataPointer, ptr %3, i32 0, i32 2
  store i64 0, ptr %6, align 8
  ret void
}

; Function Attrs: mustprogress uwtable
define linkonce_odr void @_ZN7QObject7connectIM9QLineEditFvRK7QStringEM15FieldFilterEditFvS4_EEEN11QMetaObject10ConnectionEPKN9QtPrivate15FunctionPointerIT_E6ObjectESE_PKNSD_IT0_E6ObjectESJ_N2Qt14ConnectionTypeE(ptr dead_on_unwind noalias writable sret(%"class.QMetaObject::Connection") align 8 %0, ptr noundef %1, i64 %2, i64 %3, ptr noundef %4, ptr noundef byval({ i64, i64 }) align 8 %5, i32 noundef %6) #1 comdat align 2 personality ptr @__gxx_personality_v0 {
  %8 = alloca ptr, align 8
  %9 = alloca { i64, i64 }, align 8
  %10 = alloca ptr, align 8
  %11 = alloca { i64, i64 }, align 8
  %12 = alloca ptr, align 8
  %13 = alloca { i64, i64 }, align 8
  %14 = alloca i32, align 4
  %15 = alloca ptr, align 8
  %16 = alloca { i64, i64 }, align 8
  %17 = alloca ptr, align 8
  %18 = alloca i32, align 4
  store ptr %0, ptr %8, align 8
  %19 = getelementptr inbounds { i64, i64 }, ptr %9, i32 0, i32 0
  store i64 %2, ptr %19, align 8
  %20 = getelementptr inbounds { i64, i64 }, ptr %9, i32 0, i32 1
  store i64 %3, ptr %20, align 8
  %21 = load { i64, i64 }, ptr %9, align 8
  %22 = load { i64, i64 }, ptr %5, align 8
  store ptr %1, ptr %10, align 8
  store { i64, i64 } %21, ptr %11, align 8
  store ptr %4, ptr %12, align 8
  store { i64, i64 } %22, ptr %13, align 8
  store i32 %6, ptr %14, align 4
  store ptr null, ptr %15, align 8
  %23 = load i32, ptr %14, align 4
  %24 = icmp eq i32 %23, 2
  br i1 %24, label %28, label %25

25:                                               ; preds = %7
  %26 = load i32, ptr %14, align 4
  %27 = icmp eq i32 %26, 3
  br i1 %27, label %28, label %30

28:                                               ; preds = %25, %7
  %29 = call noundef ptr @_ZN9QtPrivate15ConnectionTypesINS_4ListIJRK7QStringEEELb1EE5typesEv()
  store ptr %29, ptr %15, align 8
  br label %30

30:                                               ; preds = %28, %25
  %31 = load ptr, ptr %10, align 8
  %32 = load ptr, ptr %12, align 8
  %33 = call noalias noundef nonnull ptr @_Znwm(i64 noundef 32) #14
  %34 = load { i64, i64 }, ptr %13, align 8
  store { i64, i64 } %34, ptr %16, align 8
  %35 = getelementptr inbounds { i64, i64 }, ptr %16, i32 0, i32 0
  %36 = load i64, ptr %35, align 8
  %37 = getelementptr inbounds { i64, i64 }, ptr %16, i32 0, i32 1
  %38 = load i64, ptr %37, align 8
  invoke void @_ZN9QtPrivate11QSlotObjectIM15FieldFilterEditFvRK7QStringENS_4ListIJS4_EEEvEC2ES6_(ptr noundef nonnull align 8 dereferenceable(32) %33, i64 %36, i64 %38)
          to label %39 unwind label %42

39:                                               ; preds = %30
  %40 = load i32, ptr %14, align 4
  %41 = load ptr, ptr %15, align 8
  call void @_ZN7QObject11connectImplEPKS_PPvS1_S3_PN9QtPrivate15QSlotObjectBaseEN2Qt14ConnectionTypeEPKiPK11QMetaObject(ptr dead_on_unwind writable sret(%"class.QMetaObject::Connection") align 8 %0, ptr noundef %31, ptr noundef %11, ptr noundef %32, ptr noundef %13, ptr noundef %33, i32 noundef %40, ptr noundef %41, ptr noundef @_ZN9QLineEdit16staticMetaObjectE)
  ret void

42:                                               ; preds = %30
  %43 = landingpad { ptr, i32 }
          cleanup
  %44 = extractvalue { ptr, i32 } %43, 0
  store ptr %44, ptr %17, align 8
  %45 = extractvalue { ptr, i32 } %43, 1
  store i32 %45, ptr %18, align 4
  call void @_ZdlPv(ptr noundef %33) #15
  br label %46

46:                                               ; preds = %42
  %47 = load ptr, ptr %17, align 8
  %48 = load i32, ptr %18, align 4
  %49 = insertvalue { ptr, i32 } poison, ptr %47, 0
  %50 = insertvalue { ptr, i32 } %49, i32 %48, 1
  resume { ptr, i32 } %50
}

; Function Attrs: mustprogress nounwind uwtable
define linkonce_odr void @_ZN14SyntaxLineEdit23setCompletionTokenCharsERK7QString(ptr noundef nonnull align 8 dereferenceable(185) %0, ptr noundef nonnull align 8 dereferenceable(24) %1) #2 comdat align 2 {
  %3 = alloca ptr, align 8
  %4 = alloca ptr, align 8
  store ptr %0, ptr %3, align 8
  store ptr %1, ptr %4, align 8
  %5 = load ptr, ptr %3, align 8
  %6 = load ptr, ptr %4, align 8
  %7 = getelementptr inbounds %class.SyntaxLineEdit, ptr %5, i32 0, i32 9
  %8 = call noundef nonnull align 8 dereferenceable(24) ptr @_ZN7QStringaSERKS_(ptr noundef nonnull align 8 dereferenceable(24) %7, ptr noundef nonnull align 8 dereferenceable(24) %6) #3
  ret void
}

; Function Attrs: mustprogress uwtable
define linkonce_odr void @_ZN15FieldFilterEdit2trEPKcS1_i(ptr dead_on_unwind noalias writable sret(%class.QString) align 8 %0, ptr noundef %1, ptr noundef %2, i32 noundef %3) #1 comdat align 2 {
  %5 = alloca ptr, align 8
  %6 = alloca ptr, align 8
  %7 = alloca ptr, align 8
  %8 = alloca i32, align 4
  store ptr %0, ptr %5, align 8
  store ptr %1, ptr %6, align 8
  store ptr %2, ptr %7, align 8
  store i32 %3, ptr %8, align 4
  %9 = load ptr, ptr %6, align 8
  %10 = load ptr, ptr %7, align 8
  %11 = load i32, ptr %8, align 4
  call void @_ZNK11QMetaObject2trEPKcS1_i(ptr dead_on_unwind writable sret(%class.QString) align 8 %0, ptr noundef nonnull align 8 dereferenceable(56) @_ZN15FieldFilterEdit16staticMetaObjectE, ptr noundef %9, ptr noundef %10, i32 noundef %11)
  ret void
}

; Function Attrs: mustprogress nounwind uwtable
define linkonce_odr void @_ZN7QStringC2Ev(ptr noundef nonnull align 8 dereferenceable(24) %0) unnamed_addr #2 comdat align 2 {
  %2 = alloca ptr, align 8
  store ptr %0, ptr %2, align 8
  %3 = load ptr, ptr %2, align 8
  %4 = getelementptr inbounds %class.QString, ptr %3, i32 0, i32 0
  call void @_ZN17QArrayDataPointerIDsEC2Ev(ptr noundef nonnull align 8 dereferenceable(24) %4) #3
  ret void
}

; Function Attrs: mustprogress uwtable
define void @_ZN15FieldFilterEditC2EP7QWidget(ptr noundef nonnull align 8 dereferenceable(216) %0, ptr noundef %1) unnamed_addr #1 align 2 personality ptr @__gxx_personality_v0 {
  %3 = alloca ptr, align 8
  %4 = alloca ptr, align 8
  %5 = alloca %class.QString, align 8
  %6 = alloca ptr, align 8
  %7 = alloca i32, align 4
  %8 = alloca %"class.QMetaObject::Connection", align 8
  %9 = alloca { i64, i64 }, align 8
  %10 = alloca { i64, i64 }, align 8
  store ptr %0, ptr %3, align 8
  store ptr %1, ptr %4, align 8
  %11 = load ptr, ptr %3, align 8
  %12 = load ptr, ptr %4, align 8
  call void @_ZN14SyntaxLineEditC2EP7QWidget(ptr noundef nonnull align 8 dereferenceable(185) %11, ptr noundef %12)
  store ptr getelementptr inbounds ({ [56 x ptr], [10 x ptr] }, ptr @_ZTV15FieldFilterEdit, i32 0, i32 0, i32 2), ptr %11, align 8
  %13 = getelementptr inbounds i8, ptr %11, i64 16
  store ptr getelementptr inbounds ({ [56 x ptr], [10 x ptr] }, ptr @_ZTV15FieldFilterEdit, i32 0, i32 1, i32 2), ptr %13, align 8
  %14 = getelementptr inbounds %class.FieldFilterEdit, ptr %11, i32 0, i32 1
  call void @_ZN7QStringC2Ev(ptr noundef nonnull align 8 dereferenceable(24) %14) #3
  invoke void @_ZN15FieldFilterEdit2trEPKcS1_i(ptr dead_on_unwind writable sret(%class.QString) align 8 %5, ptr noundef @.str.1, ptr noundef null, i32 noundef -1)
          to label %15 unwind label %34

15:                                               ; preds = %2
  invoke void @_ZN7QWidget17setAccessibleNameERK7QString(ptr noundef nonnull align 8 dereferenceable(40) %11, ptr noundef nonnull align 8 dereferenceable(24) %5)
          to label %16 unwind label %38

16:                                               ; preds = %15
  call void @_ZN7QStringD2Ev(ptr noundef nonnull align 8 dereferenceable(24) %5) #3
  %17 = invoke noalias noundef nonnull ptr @_Znwm(i64 noundef 40) #14
          to label %18 unwind label %34

18:                                               ; preds = %16
  invoke void @_ZN16QStringListModelC1EP7QObject(ptr noundef nonnull align 8 dereferenceable(40) %17, ptr noundef %11)
          to label %19 unwind label %42

19:                                               ; preds = %18
  %20 = getelementptr inbounds %class.SyntaxLineEdit, ptr %11, i32 0, i32 2
  store ptr %17, ptr %20, align 8
  %21 = invoke noalias noundef nonnull ptr @_Znwm(i64 noundef 16) #14
          to label %22 unwind label %34

22:                                               ; preds = %19
  %23 = getelementptr inbounds %class.SyntaxLineEdit, ptr %11, i32 0, i32 2
  %24 = load ptr, ptr %23, align 8
  invoke void @_ZN10QCompleterC1EP18QAbstractItemModelP7QObject(ptr noundef nonnull align 8 dereferenceable(16) %21, ptr noundef %24, ptr noundef %11)
          to label %25 unwind label %46

25:                                               ; preds = %22
  invoke void @_ZN14SyntaxLineEdit12setCompleterEP10QCompleter(ptr noundef nonnull align 8 dereferenceable(185) %11, ptr noundef %21)
          to label %26 unwind label %34

26:                                               ; preds = %25
  invoke void @_ZN14SyntaxLineEdit23setCompletionTokenCharsERK7QString(ptr noundef nonnull align 8 dereferenceable(185) %11, ptr noundef nonnull align 8 dereferenceable(24) @_ZL17fld_abbrev_chars_)
          to label %27 unwind label %34

27:                                               ; preds = %26
  invoke void @_ZN15FieldFilterEdit25setDefaultPlaceholderTextEv(ptr noundef nonnull align 8 dereferenceable(216) %11)
          to label %28 unwind label %34

28:                                               ; preds = %27
  store { i64, i64 } { i64 ptrtoint (ptr @_ZN9QLineEdit11textChangedERK7QString to i64), i64 0 }, ptr %9, align 8
  %29 = getelementptr inbounds { i64, i64 }, ptr %9, i32 0, i32 0
  %30 = load i64, ptr %29, align 8
  %31 = getelementptr inbounds { i64, i64 }, ptr %9, i32 0, i32 1
  %32 = load i64, ptr %31, align 8
  store { i64, i64 } { i64 ptrtoint (ptr @_ZN15FieldFilterEdit11checkFilterERK7QString to i64), i64 0 }, ptr %10, align 8
  invoke void @_ZN7QObject7connectIM9QLineEditFvRK7QStringEM15FieldFilterEditFvS4_EEEN11QMetaObject10ConnectionEPKN9QtPrivate15FunctionPointerIT_E6ObjectESE_PKNSD_IT0_E6ObjectESJ_N2Qt14ConnectionTypeE(ptr dead_on_unwind writable sret(%"class.QMetaObject::Connection") align 8 %8, ptr noundef %11, i64 %30, i64 %32, ptr noundef %11, ptr noundef byval({ i64, i64 }) align 8 %10, i32 noundef 0)
          to label %33 unwind label %34

33:                                               ; preds = %28
  call void @_ZN11QMetaObject10ConnectionD1Ev(ptr noundef nonnull align 8 dereferenceable(8) %8) #3
  ret void

34:                                               ; preds = %28, %27, %26, %25, %19, %16, %2
  %35 = landingpad { ptr, i32 }
          cleanup
  %36 = extractvalue { ptr, i32 } %35, 0
  store ptr %36, ptr %6, align 8
  %37 = extractvalue { ptr, i32 } %35, 1
  store i32 %37, ptr %7, align 4
  br label %50

38:                                               ; preds = %15
  %39 = landingpad { ptr, i32 }
          cleanup
  %40 = extractvalue { ptr, i32 } %39, 0
  store ptr %40, ptr %6, align 8
  %41 = extractvalue { ptr, i32 } %39, 1
  store i32 %41, ptr %7, align 4
  call void @_ZN7QStringD2Ev(ptr noundef nonnull align 8 dereferenceable(24) %5) #3
  br label %50

42:                                               ; preds = %18
  %43 = landingpad { ptr, i32 }
          cleanup
  %44 = extractvalue { ptr, i32 } %43, 0
  store ptr %44, ptr %6, align 8
  %45 = extractvalue { ptr, i32 } %43, 1
  store i32 %45, ptr %7, align 4
  call void @_ZdlPv(ptr noundef %17) #15
  br label %50

46:                                               ; preds = %22
  %47 = landingpad { ptr, i32 }
          cleanup
  %48 = extractvalue { ptr, i32 } %47, 0
  store ptr %48, ptr %6, align 8
  %49 = extractvalue { ptr, i32 } %47, 1
  store i32 %49, ptr %7, align 4
  call void @_ZdlPv(ptr noundef %21) #15
  br label %50

50:                                               ; preds = %46, %42, %38, %34
  call void @_ZN7QStringD2Ev(ptr noundef nonnull align 8 dereferenceable(24) %14) #3
  call void @_ZN14SyntaxLineEditD2Ev(ptr noundef nonnull align 8 dereferenceable(185) %11) #3
  br label %51

51:                                               ; preds = %50
  %52 = load ptr, ptr %6, align 8
  %53 = load i32, ptr %7, align 4
  %54 = insertvalue { ptr, i32 } poison, ptr %52, 0
  %55 = insertvalue { ptr, i32 } %54, i32 %53, 1
  resume { ptr, i32 } %55
}