; Function Attrs: mustprogress uwtable
define void @_ZN15FieldFilterEditC2EP7QWidget(ptr noundef nonnull align 8 dereferenceable(216) %0, ptr noundef %1) unnamed_addr #2 align 2 personality ptr @__gxx_personality_v0 {
  %3 = alloca { i64, i64 }, align 8
  %4 = alloca { i64, i64 }, align 8
  %5 = alloca %class.QString, align 8
  %6 = alloca %"class.QMetaObject::Connection", align 8
  tail call void @_ZN14SyntaxLineEditC2EP7QWidget(ptr noundef nonnull align 8 dereferenceable(185) %0, ptr noundef %1)
  store ptr getelementptr inbounds ({ [56 x ptr], [10 x ptr] }, ptr @_ZTV15FieldFilterEdit, i64 0, i32 0, i64 2), ptr %0, align 8
  %7 = getelementptr inbounds i8, ptr %0, i64 16
  store ptr getelementptr inbounds ({ [56 x ptr], [10 x ptr] }, ptr @_ZTV15FieldFilterEdit, i64 0, i32 1, i64 2), ptr %7, align 8
  %8 = getelementptr inbounds i8, ptr %0, i64 192
  tail call void @llvm.memset.p0.i64(ptr noundef nonnull align 8 dereferenceable(24) %8, i8 0, i64 24, i1 false)
  invoke void @_ZNK11QMetaObject2trEPKcS1_i(ptr dead_on_unwind nonnull writable sret(%class.QString) align 8 %5, ptr noundef nonnull align 8 dereferenceable(56) @_ZN15FieldFilterEdit16staticMetaObjectE, ptr noundef nonnull @.str.1, ptr noundef null, i32 noundef -1)
          to label %_ZN15FieldFilterEdit2trEPKcS1_i.exit unwind label %29

_ZN15FieldFilterEdit2trEPKcS1_i.exit:             ; preds = %2
  invoke void @_ZN7QWidget17setAccessibleNameERK7QString(ptr noundef nonnull align 8 dereferenceable(40) %0, ptr noundef nonnull align 8 dereferenceable(24) %5)
          to label %9 unwind label %31

9:                                                ; preds = %_ZN15FieldFilterEdit2trEPKcS1_i.exit
  %10 = load ptr, ptr %5, align 8
  %.not.i.i.i = icmp eq ptr %10, null
  br i1 %.not.i.i.i, label %_ZN7QStringD2Ev.exit, label %_ZN17QArrayDataPointerIDsE5derefEv.exit.i.i

_ZN17QArrayDataPointerIDsE5derefEv.exit.i.i:      ; preds = %9
  %11 = atomicrmw sub ptr %10, i32 1 seq_cst, align 4
  %.not.i.i = icmp eq i32 %11, 1
  br i1 %.not.i.i, label %12, label %_ZN7QStringD2Ev.exit

12:                                               ; preds = %_ZN17QArrayDataPointerIDsE5derefEv.exit.i.i
  %13 = load ptr, ptr %5, align 8
  call void @_ZN10QArrayData10deallocateEPS_xx(ptr noundef %13, i64 noundef 2, i64 noundef 8) #15
  br label %_ZN7QStringD2Ev.exit

_ZN7QStringD2Ev.exit:                             ; preds = %9, %_ZN17QArrayDataPointerIDsE5derefEv.exit.i.i, %12
  %14 = invoke noalias noundef nonnull dereferenceable(40) ptr @_Znwm(i64 noundef 40) #16
          to label %15 unwind label %29

15:                                               ; preds = %_ZN7QStringD2Ev.exit
  invoke void @_ZN16QStringListModelC1EP7QObject(ptr noundef nonnull align 8 dereferenceable(40) %14, ptr noundef nonnull %0)
          to label %16 unwind label %37

16:                                               ; preds = %15
  %17 = getelementptr inbounds i8, ptr %0, i64 48
  store ptr %14, ptr %17, align 8
  %18 = invoke noalias noundef nonnull dereferenceable(16) ptr @_Znwm(i64 noundef 16) #16
          to label %19 unwind label %29

19:                                               ; preds = %16
  invoke void @_ZN10QCompleterC1EP18QAbstractItemModelP7QObject(ptr noundef nonnull align 8 dereferenceable(16) %18, ptr noundef nonnull %14, ptr noundef nonnull %0)
          to label %20 unwind label %39

20:                                               ; preds = %19
  invoke void @_ZN14SyntaxLineEdit12setCompleterEP10QCompleter(ptr noundef nonnull align 8 dereferenceable(185) %0, ptr noundef nonnull %18)
          to label %21 unwind label %29

21:                                               ; preds = %20
  %22 = getelementptr inbounds i8, ptr %0, i64 160
  %23 = call noundef nonnull align 8 dereferenceable(24) ptr @_ZN7QStringaSERKS_(ptr noundef nonnull align 8 dereferenceable(24) %22, ptr noundef nonnull align 8 dereferenceable(24) @_ZL17fld_abbrev_chars_) #15
  invoke void @_ZN15FieldFilterEdit25setDefaultPlaceholderTextEv(ptr noundef nonnull align 8 dereferenceable(216) %0)
          to label %24 unwind label %29

24:                                               ; preds = %21
  call void @llvm.lifetime.start.p0(i64 16, ptr nonnull %3)
  call void @llvm.lifetime.start.p0(i64 16, ptr nonnull %4)
  store i64 ptrtoint (ptr @_ZN9QLineEdit11textChangedERK7QString to i64), ptr %3, align 8, !noalias !4
  %.fca.1.gep14.i = getelementptr inbounds i8, ptr %3, i64 8
  store i64 0, ptr %.fca.1.gep14.i, align 8, !noalias !4
  store i64 ptrtoint (ptr @_ZN15FieldFilterEdit11checkFilterERK7QString to i64), ptr %4, align 8, !noalias !4
  %.fca.1.gep.i = getelementptr inbounds i8, ptr %4, i64 8
  store i64 0, ptr %.fca.1.gep.i, align 8, !noalias !4
  %25 = invoke noalias noundef nonnull dereferenceable(32) ptr @_Znwm(i64 noundef 32) #16
          to label %.noexc unwind label %29

.noexc:                                           ; preds = %24
  store i32 1, ptr %25, align 4, !noalias !4
  %26 = getelementptr inbounds i8, ptr %25, i64 8
  store ptr @_ZN9QtPrivate11QSlotObjectIM15FieldFilterEditFvRK7QStringENS_4ListIJS4_EEEvE4implEiPNS_15QSlotObjectBaseEP7QObjectPPvPb, ptr %26, align 8, !noalias !4
  %27 = getelementptr inbounds i8, ptr %25, i64 16
  store i64 ptrtoint (ptr @_ZN15FieldFilterEdit11checkFilterERK7QString to i64), ptr %27, align 8, !noalias !4
  %.repack7.i.i = getelementptr inbounds i8, ptr %25, i64 24
  store i64 0, ptr %.repack7.i.i, align 8, !noalias !4
  invoke void @_ZN7QObject11connectImplEPKS_PPvS1_S3_PN9QtPrivate15QSlotObjectBaseEN2Qt14ConnectionTypeEPKiPK11QMetaObject(ptr dead_on_unwind nonnull writable sret(%"class.QMetaObject::Connection") align 8 %6, ptr noundef nonnull %0, ptr noundef nonnull %3, ptr noundef nonnull %0, ptr noundef nonnull %4, ptr noundef nonnull %25, i32 noundef 0, ptr noundef null, ptr noundef nonnull @_ZN9QLineEdit16staticMetaObjectE)
          to label %28 unwind label %29

28:                                               ; preds = %.noexc
  call void @llvm.lifetime.end.p0(i64 16, ptr nonnull %3)
  call void @llvm.lifetime.end.p0(i64 16, ptr nonnull %4)
  call void @_ZN11QMetaObject10ConnectionD1Ev(ptr noundef nonnull align 8 dereferenceable(8) %6) #15
  ret void

29:                                               ; preds = %.noexc, %24, %2, %21, %20, %16, %_ZN7QStringD2Ev.exit
  %30 = landingpad { ptr, i32 }
          cleanup
  br label %_ZN7QStringD2Ev.exit11

31:                                               ; preds = %_ZN15FieldFilterEdit2trEPKcS1_i.exit
  %32 = landingpad { ptr, i32 }
          cleanup
  %33 = load ptr, ptr %5, align 8
  %.not.i.i.i8 = icmp eq ptr %33, null
  br i1 %.not.i.i.i8, label %_ZN7QStringD2Ev.exit11, label %_ZN17QArrayDataPointerIDsE5derefEv.exit.i.i9

_ZN17QArrayDataPointerIDsE5derefEv.exit.i.i9:     ; preds = %31
  %34 = atomicrmw sub ptr %33, i32 1 seq_cst, align 4
  %.not.i.i10 = icmp eq i32 %34, 1
  br i1 %.not.i.i10, label %35, label %_ZN7QStringD2Ev.exit11

35:                                               ; preds = %_ZN17QArrayDataPointerIDsE5derefEv.exit.i.i9
  %36 = load ptr, ptr %5, align 8
  call void @_ZN10QArrayData10deallocateEPS_xx(ptr noundef %36, i64 noundef 2, i64 noundef 8) #15
  br label %_ZN7QStringD2Ev.exit11

37:                                               ; preds = %15
  %38 = landingpad { ptr, i32 }
          cleanup
  call void @_ZdlPv(ptr noundef nonnull %14) #17
  br label %_ZN7QStringD2Ev.exit11

39:                                               ; preds = %19
  %40 = landingpad { ptr, i32 }
          cleanup
  call void @_ZdlPv(ptr noundef nonnull %18) #17
  br label %_ZN7QStringD2Ev.exit11

_ZN7QStringD2Ev.exit11:                           ; preds = %35, %_ZN17QArrayDataPointerIDsE5derefEv.exit.i.i9, %31, %39, %37, %29
  %.pn = phi { ptr, i32 } [ %30, %29 ], [ %40, %39 ], [ %38, %37 ], [ %32, %31 ], [ %32, %_ZN17QArrayDataPointerIDsE5derefEv.exit.i.i9 ], [ %32, %35 ]
  call void @_ZN7QStringD2Ev(ptr noundef nonnull align 8 dereferenceable(24) %8) #15
  call void @_ZN14SyntaxLineEditD2Ev(ptr noundef nonnull align 8 dereferenceable(185) %0) #15
  resume { ptr, i32 } %.pn
}